; Function Attrs: inlinehint mustprogress uwtable
define internal fastcc void @_ZN2cv4rgbdL20setDefaultIterCountsERNS_3MatE(ptr noundef nonnull align 8 dereferenceable(96) %0) unnamed_addr #9 personality ptr @__gxx_personality_v0 {
  %2 = alloca %"class.cv::Mat", align 8
  %3 = alloca %"class.cv::_OutputArray", align 8
  %4 = alloca %"class.cv::Mat", align 8
  %5 = alloca %"class.cv::Vec.54", align 4
  call void @llvm.lifetime.start.p0(i64 96, ptr nonnull %4) #31
  call void @llvm.lifetime.start.p0(i64 16, ptr nonnull %5) #31
  store i32 7, ptr %5, align 4, !tbaa !75
  %6 = getelementptr inbounds nuw i8, ptr %5, i64 4
  store i32 7, ptr %6, align 4, !tbaa !75
  %7 = getelementptr inbounds nuw i8, ptr %5, i64 8
  store i32 7, ptr %7, align 4, !tbaa !75
  %8 = getelementptr inbounds nuw i8, ptr %5, i64 12
  store i32 10, ptr %8, align 4, !tbaa !75
  store i32 1124024324, ptr %4, align 8, !tbaa !112
  %9 = getelementptr inbounds nuw i8, ptr %4, i64 4
  store i32 2, ptr %9, align 4, !tbaa !113
  %10 = getelementptr inbounds nuw i8, ptr %4, i64 8
  store i32 4, ptr %10, align 8, !tbaa !114
  %11 = getelementptr inbounds nuw i8, ptr %4, i64 12
  store i32 1, ptr %11, align 4, !tbaa !115
  %12 = getelementptr inbounds nuw i8, ptr %4, i64 16
  %13 = getelementptr inbounds nuw i8, ptr %4, i64 64
  call void @llvm.memset.p0.i64(ptr noundef nonnull align 8 dereferenceable(48) %12, i8 0, i64 48, i1 false)
  store ptr %10, ptr %13, align 8, !tbaa !116
  %14 = getelementptr inbounds nuw i8, ptr %4, i64 72
  %15 = getelementptr inbounds nuw i8, ptr %4, i64 80
  store ptr %15, ptr %14, align 8, !tbaa !117
  call void @llvm.memset.p0.i64(ptr noundef nonnull align 8 dereferenceable(16) %15, i8 0, i64 16, i1 false)
  call void @llvm.lifetime.start.p0(i64 96, ptr nonnull %2) #31
  call void @_ZN2cv3MatC1EiiiPvm(ptr noundef nonnull align 8 dereferenceable(96) %2, i32 noundef 4, i32 noundef 1, i32 noundef 4, ptr noundef nonnull align 4 dereferenceable(16) %5, i64 noundef 0)
  call void @llvm.lifetime.start.p0(i64 24, ptr nonnull %3) #31
  %16 = getelementptr inbounds nuw i8, ptr %3, i64 8
  %17 = getelementptr inbounds nuw i8, ptr %3, i64 16
  store i64 0, ptr %17, align 8
  store i32 33619968, ptr %3, align 8, !tbaa !118
  store ptr %4, ptr %16, align 8, !tbaa !121
  invoke void @_ZNK2cv3Mat6copyToERKNS_12_OutputArrayE(ptr noundef nonnull align 8 dereferenceable(96) %2, ptr noundef nonnull align 8 dereferenceable(24) %3)
          to label %_ZN2cv3MatC2IiLi4EEERKNS_3VecIT_XT0_EEEb.exit unwind label %18

common.resume:                                    ; preds = %22, %18
  %common.resume.op = phi { ptr, i32 } [ %19, %18 ], [ %23, %22 ]
  resume { ptr, i32 } %common.resume.op

18:                                               ; preds = %1
  %19 = landingpad { ptr, i32 }
          cleanup
  call void @llvm.lifetime.end.p0(i64 24, ptr nonnull %3) #31
  call void @_ZN2cv3MatD1Ev(ptr noundef nonnull align 8 dereferenceable(96) %2) #31
  call void @llvm.lifetime.end.p0(i64 96, ptr nonnull %2) #31
  br label %common.resume

_ZN2cv3MatC2IiLi4EEERKNS_3VecIT_XT0_EEEb.exit:    ; preds = %1
  call void @llvm.lifetime.end.p0(i64 24, ptr nonnull %3) #31
  call void @_ZN2cv3MatD1Ev(ptr noundef nonnull align 8 dereferenceable(96) %2) #31
  call void @llvm.lifetime.end.p0(i64 96, ptr nonnull %2) #31
  %20 = invoke noundef nonnull align 8 dereferenceable(96) ptr @_ZN2cv3MataSEOS0_(ptr noundef nonnull align 8 dereferenceable(96) %0, ptr noundef nonnull align 8 dereferenceable(96) %4)
          to label %21 unwind label %22

21:                                               ; preds = %_ZN2cv3MatC2IiLi4EEERKNS_3VecIT_XT0_EEEb.exit
  call void @_ZN2cv3MatD1Ev(ptr noundef nonnull align 8 dereferenceable(96) %4) #31
  call void @llvm.lifetime.end.p0(i64 16, ptr nonnull %5) #31
  call void @llvm.lifetime.end.p0(i64 96, ptr nonnull %4) #31
  ret void

22:                                               ; preds = %_ZN2cv3MatC2IiLi4EEERKNS_3VecIT_XT0_EEEb.exit
  %23 = landingpad { ptr, i32 }
          cleanup
  call void @_ZN2cv3MatD1Ev(ptr noundef nonnull align 8 dereferenceable(96) %4) #31
  call void @llvm.lifetime.end.p0(i64 16, ptr nonnull %5) #31
  call void @llvm.lifetime.end.p0(i64 96, ptr nonnull %4) #31
  br label %common.resume
}